target datalayout = "e-m:e-p270:32:32-p271:32:32-p272:64:64-i64:64-i128:128-f80:128-n8:16:32:64-S128"
target triple = "x86_64-pc-linux-gnu"

@hf_nfapi_earfcn = internal global i32 0, align 4
@hf_nfapi_timeout = internal global i32 0, align 4
@hf_nfapi_measurement_bandwidth = internal global i32 0, align 4
@hf_nfapi_exhaustive_search = internal global i32 0, align 4
@hf_nfapi_number_of_pci = internal global i32 0, align 4
@ett_nfapi_pci_list = internal global i32 0, align 4
@.str.1839 = private unnamed_addr constant [3 x i8] c"%s\00", align 1
@.str.1840 = private unnamed_addr constant [5 x i8] c"[%d]\00", align 1
@.str.2337 = private unnamed_addr constant [5 x i8] c"PCIs\00", align 1

; Function Attrs: nounwind uwtable
define internal void @dissect_array_value(ptr noundef %0, ptr noundef %1, ptr noundef %2, i32 noundef %3, i32 noundef %4, ptr noundef %5) #0 {
  %7 = alloca ptr, align 8
  %8 = alloca ptr, align 8
  %9 = alloca ptr, align 8
  %10 = alloca i32, align 4
  %11 = alloca i32, align 4
  %12 = alloca ptr, align 8
  %13 = alloca i16, align 2
  store ptr %0, ptr %7, align 8
  store ptr %1, ptr %8, align 8
  store ptr %2, ptr %9, align 8
  store i32 %3, ptr %10, align 4
  store i32 %4, ptr %11, align 4
  store ptr %5, ptr %12, align 8
  %14 = load i32, ptr %11, align 4
  %15 = icmp ugt i32 %14, 0
  br i1 %15, label %16, label %41

16:                                               ; preds = %6
  %17 = load ptr, ptr %7, align 8
  %18 = load i32, ptr %10, align 4
  %19 = load ptr, ptr %9, align 8
  %20 = call ptr (ptr, i32, i32, ptr, ...) @ptvcursor_add_text_with_subtree(ptr noundef %17, i32 noundef -1, i32 noundef %18, ptr noundef @.str.1839, ptr noundef %19)
  store i16 0, ptr %13, align 2
  br label %21

21:                                               ; preds = %36, %16
  %22 = load i16, ptr %13, align 2
  %23 = zext i16 %22 to i32
  %24 = load i32, ptr %11, align 4
  %25 = icmp ult i32 %23, %24
  br i1 %25, label %26, label %39

26:                                               ; preds = %21
  %27 = load ptr, ptr %7, align 8
  %28 = load i32, ptr %10, align 4
  %29 = load i16, ptr %13, align 2
  %30 = zext i16 %29 to i32
  %31 = call ptr (ptr, i32, i32, ptr, ...) @ptvcursor_add_text_with_subtree(ptr noundef %27, i32 noundef -1, i32 noundef %28, ptr noundef @.str.1840, i32 noundef %30)
  %32 = load ptr, ptr %12, align 8
  %33 = load ptr, ptr %7, align 8
  %34 = load ptr, ptr %8, align 8
  call void %32(ptr noundef %33, ptr noundef %34)
  %35 = load ptr, ptr %7, align 8
  call void @ptvcursor_pop_subtree(ptr noundef %35)
  br label %36

36:                                               ; preds = %26
  %37 = load i16, ptr %13, align 2
  %38 = add i16 %37, 1
  store i16 %38, ptr %13, align 2
  br label %21, !llvm.loop !4

39:                                               ; preds = %21
  %40 = load ptr, ptr %7, align 8
  call void @ptvcursor_pop_subtree(ptr noundef %40)
  br label %41

41:                                               ; preds = %39, %6
  ret void
}

; Function Attrs: nounwind uwtable
define internal void @dissect_lte_cell_search_value(ptr noundef %0, ptr noundef %1) #0 {
  %3 = alloca ptr, align 8
  %4 = alloca ptr, align 8
  %5 = alloca i32, align 4
  store ptr %0, ptr %3, align 8
  store ptr %1, ptr %4, align 8
  %6 = load ptr, ptr %3, align 8
  %7 = load i32, ptr @hf_nfapi_earfcn, align 4
  %8 = call ptr @ptvcursor_add(ptr noundef %6, i32 noundef %7, i32 noundef 2, i32 noundef 0)
  %9 = load ptr, ptr %3, align 8
  %10 = load i32, ptr @hf_nfapi_measurement_bandwidth, align 4
  %11 = call ptr @ptvcursor_add(ptr noundef %9, i32 noundef %10, i32 noundef 1, i32 noundef 0)
  %12 = load ptr, ptr %3, align 8
  %13 = load i32, ptr @hf_nfapi_exhaustive_search, align 4
  %14 = call ptr @ptvcursor_add(ptr noundef %12, i32 noundef %13, i32 noundef 1, i32 noundef 0)
  %15 = load ptr, ptr %3, align 8
  %16 = load i32, ptr @hf_nfapi_timeout, align 4
  %17 = call ptr @ptvcursor_add(ptr noundef %15, i32 noundef %16, i32 noundef 4, i32 noundef 0)
  %18 = load ptr, ptr %3, align 8
  %19 = load i32, ptr @hf_nfapi_number_of_pci, align 4
  %20 = call ptr @ptvcursor_add_ret_uint(ptr noundef %18, i32 noundef %19, i32 noundef 1, i32 noundef 0, ptr noundef %5)
  %21 = load ptr, ptr %3, align 8
  %22 = load ptr, ptr %4, align 8
  %23 = load i32, ptr @ett_nfapi_pci_list, align 4
  %24 = load i32, ptr %5, align 4
  call void @dissect_array_value(ptr noundef %21, ptr noundef %22, ptr noundef @.str.2337, i32 noundef %23, i32 noundef %24, ptr noundef @dissect_pci_value)
  ret void
}