; Function Attrs: nounwind uwtable
define internal void @dissect_lte_cell_search_value(ptr noundef %0, ptr readnone captures(none) %1) #0 {
  %3 = alloca i32, align 4
  %4 = load i32, ptr @hf_nfapi_earfcn, align 4
  %5 = tail call ptr @ptvcursor_add(ptr noundef %0, i32 noundef %4, i32 noundef 2, i32 noundef 0) #7
  %6 = load i32, ptr @hf_nfapi_measurement_bandwidth, align 4
  %7 = tail call ptr @ptvcursor_add(ptr noundef %0, i32 noundef %6, i32 noundef 1, i32 noundef 0) #7
  %8 = load i32, ptr @hf_nfapi_exhaustive_search, align 4
  %9 = tail call ptr @ptvcursor_add(ptr noundef %0, i32 noundef %8, i32 noundef 1, i32 noundef 0) #7
  %10 = load i32, ptr @hf_nfapi_timeout, align 4
  %11 = tail call ptr @ptvcursor_add(ptr noundef %0, i32 noundef %10, i32 noundef 4, i32 noundef 0) #7
  %12 = load i32, ptr @hf_nfapi_number_of_pci, align 4
  %13 = call ptr @ptvcursor_add_ret_uint(ptr noundef %0, i32 noundef %12, i32 noundef 1, i32 noundef 0, ptr noundef nonnull %3) #7
  %14 = load i32, ptr @ett_nfapi_pci_list, align 4
  %15 = load i32, ptr %3, align 4
  %.not.i = icmp eq i32 %15, 0
  br i1 %.not.i, label %dissect_array_value.exit, label %16

16:                                               ; preds = %2
  %17 = call ptr (ptr, i32, i32, ptr, ...) @ptvcursor_add_text_with_subtree(ptr noundef %0, i32 noundef -1, i32 noundef %14, ptr noundef nonnull @.str.1839, ptr noundef nonnull @.str.2337) #7
  br label %18

18:                                               ; preds = %18, %16
  %19 = phi i32 [ 0, %16 ], [ %24, %18 ]
  %.016.i = phi i16 [ 0, %16 ], [ %23, %18 ]
  %20 = call ptr (ptr, i32, i32, ptr, ...) @ptvcursor_add_text_with_subtree(ptr noundef %0, i32 noundef -1, i32 noundef %14, ptr noundef nonnull @.str.1840, i32 noundef %19) #7
  %21 = load i32, ptr @hf_nfapi_pci, align 4
  %22 = call ptr @ptvcursor_add(ptr noundef %0, i32 noundef %21, i32 noundef 2, i32 noundef 0) #7
  call void @ptvcursor_pop_subtree(ptr noundef %0) #7
  %23 = add i16 %.016.i, 1
  %24 = zext i16 %23 to i32
  %25 = icmp ugt i32 %15, %24
  br i1 %25, label %18, label %26, !llvm.loop !4

26:                                               ; preds = %18
  call void @ptvcursor_pop_subtree(ptr noundef %0) #7
  br label %dissect_array_value.exit

dissect_array_value.exit:                         ; preds = %2, %26
  ret void
}